target datalayout = "e-m:e-p270:32:32-p271:32:32-p272:64:64-i64:64-i128:128-f80:128-n8:16:32:64-S128"
target triple = "x86_64-pc-linux-gnu"

%struct.DdNode = type { i32, i32, ptr, %union.anon, i64 }
%union.anon = type { %struct.DdChildren }
%struct.DdChildren = type { ptr, ptr }

@zero = internal global ptr null, align 8
@.str = private unnamed_addr constant [24 x i8] c"st table insert failed\0A\00", align 1

; Function Attrs: nounwind uwtable
define internal double @CountMinterms(ptr noundef %0, double noundef %1, ptr noundef %2, ptr noundef %3) #0 {
  %5 = alloca double, align 8
  %6 = alloca ptr, align 8
  %7 = alloca double, align 8
  %8 = alloca ptr, align 8
  %9 = alloca ptr, align 8
  %10 = alloca ptr, align 8
  %11 = alloca ptr, align 8
  %12 = alloca ptr, align 8
  %13 = alloca double, align 8
  %14 = alloca double, align 8
  %15 = alloca double, align 8
  %16 = alloca ptr, align 8
  %17 = alloca i32, align 4
  store ptr %0, ptr %6, align 8, !tbaa !8
  store double %1, ptr %7, align 8, !tbaa !50
  store ptr %2, ptr %8, align 8, !tbaa !38
  store ptr %3, ptr %9, align 8, !tbaa !69
  call void @llvm.lifetime.start.p0(i64 8, ptr %10) #5
  call void @llvm.lifetime.start.p0(i64 8, ptr %11) #5
  call void @llvm.lifetime.start.p0(i64 8, ptr %12) #5
  call void @llvm.lifetime.start.p0(i64 8, ptr %13) #5
  call void @llvm.lifetime.start.p0(i64 8, ptr %14) #5
  call void @llvm.lifetime.start.p0(i64 8, ptr %15) #5
  call void @llvm.lifetime.start.p0(i64 8, ptr %16) #5
  %18 = load ptr, ptr %6, align 8, !tbaa !8
  %19 = ptrtoint ptr %18 to i64
  %20 = and i64 %19, -2
  %21 = inttoptr i64 %20 to ptr
  store ptr %21, ptr %10, align 8, !tbaa !8
  %22 = load ptr, ptr %10, align 8, !tbaa !8
  %23 = getelementptr inbounds nuw %struct.DdNode, ptr %22, i32 0, i32 0
  %24 = load i32, ptr %23, align 8, !tbaa !65
  %25 = icmp eq i32 %24, 2147483647
  br i1 %25, label %26, label %33

26:                                               ; preds = %4
  %27 = load ptr, ptr %6, align 8, !tbaa !8
  %28 = load ptr, ptr @zero, align 8, !tbaa !8
  %29 = icmp eq ptr %27, %28
  br i1 %29, label %30, label %31

30:                                               ; preds = %26
  store double 0.000000e+00, ptr %5, align 8
  store i32 1, ptr %17, align 4
  br label %109

31:                                               ; preds = %26
  %32 = load double, ptr %7, align 8, !tbaa !50
  store double %32, ptr %5, align 8
  store i32 1, ptr %17, align 4
  br label %109

33:                                               ; preds = %4
  %34 = load ptr, ptr %8, align 8, !tbaa !38
  %35 = load ptr, ptr %6, align 8, !tbaa !8
  %36 = call i32 @st__lookup(ptr noundef %34, ptr noundef %35, ptr noundef %16)
  %37 = icmp ne i32 %36, 0
  br i1 %37, label %38, label %42

38:                                               ; preds = %33
  %39 = load ptr, ptr %16, align 8, !tbaa !70
  %40 = load double, ptr %39, align 8, !tbaa !50
  store double %40, ptr %13, align 8, !tbaa !50
  %41 = load double, ptr %13, align 8, !tbaa !50
  store double %41, ptr %5, align 8
  store i32 1, ptr %17, align 4
  br label %109

42:                                               ; preds = %33
  %43 = load ptr, ptr %10, align 8, !tbaa !8
  %44 = getelementptr inbounds nuw %struct.DdNode, ptr %43, i32 0, i32 3
  %45 = getelementptr inbounds nuw %struct.DdChildren, ptr %44, i32 0, i32 0
  %46 = load ptr, ptr %45, align 8, !tbaa !66
  store ptr %46, ptr %11, align 8, !tbaa !8
  %47 = load ptr, ptr %10, align 8, !tbaa !8
  %48 = getelementptr inbounds nuw %struct.DdNode, ptr %47, i32 0, i32 3
  %49 = getelementptr inbounds nuw %struct.DdChildren, ptr %48, i32 0, i32 1
  %50 = load ptr, ptr %49, align 8, !tbaa !66
  store ptr %50, ptr %12, align 8, !tbaa !8
  %51 = load ptr, ptr %11, align 8, !tbaa !8
  %52 = ptrtoint ptr %51 to i64
  %53 = load ptr, ptr %6, align 8, !tbaa !8
  %54 = ptrtoint ptr %53 to i64
  %55 = and i64 %54, 1
  %56 = trunc i64 %55 to i32
  %57 = sext i32 %56 to i64
  %58 = xor i64 %52, %57
  %59 = inttoptr i64 %58 to ptr
  store ptr %59, ptr %11, align 8, !tbaa !8
  %60 = load ptr, ptr %12, align 8, !tbaa !8
  %61 = ptrtoint ptr %60 to i64
  %62 = load ptr, ptr %6, align 8, !tbaa !8
  %63 = ptrtoint ptr %62 to i64
  %64 = and i64 %63, 1
  %65 = trunc i64 %64 to i32
  %66 = sext i32 %65 to i64
  %67 = xor i64 %61, %66
  %68 = inttoptr i64 %67 to ptr
  store ptr %68, ptr %12, align 8, !tbaa !8
  %69 = load ptr, ptr %11, align 8, !tbaa !8
  %70 = load double, ptr %7, align 8, !tbaa !50
  %71 = load ptr, ptr %8, align 8, !tbaa !38
  %72 = load ptr, ptr %9, align 8, !tbaa !69
  %73 = call double @CountMinterms(ptr noundef %69, double noundef %70, ptr noundef %71, ptr noundef %72)
  store double %73, ptr %14, align 8, !tbaa !50
  %74 = load double, ptr %14, align 8, !tbaa !50
  %75 = fcmp oeq double %74, -1.000000e+00
  br i1 %75, label %76, label %77

76:                                               ; preds = %42
  store double -1.000000e+00, ptr %5, align 8
  store i32 1, ptr %17, align 4
  br label %109

77:                                               ; preds = %42
  %78 = load ptr, ptr %12, align 8, !tbaa !8
  %79 = load double, ptr %7, align 8, !tbaa !50
  %80 = load ptr, ptr %8, align 8, !tbaa !38
  %81 = load ptr, ptr %9, align 8, !tbaa !69
  %82 = call double @CountMinterms(ptr noundef %78, double noundef %79, ptr noundef %80, ptr noundef %81)
  store double %82, ptr %15, align 8, !tbaa !50
  %83 = load double, ptr %15, align 8, !tbaa !50
  %84 = fcmp oeq double %83, -1.000000e+00
  br i1 %84, label %85, label %86

85:                                               ; preds = %77
  store double -1.000000e+00, ptr %5, align 8
  store i32 1, ptr %17, align 4
  br label %109

86:                                               ; preds = %77
  %87 = load double, ptr %14, align 8, !tbaa !50
  %88 = fdiv double %87, 2.000000e+00
  %89 = load double, ptr %15, align 8, !tbaa !50
  %90 = fdiv double %89, 2.000000e+00
  %91 = fadd double %88, %90
  store double %91, ptr %13, align 8, !tbaa !50
  %92 = call noalias ptr @malloc(i64 noundef 8) #6
  store ptr %92, ptr %16, align 8, !tbaa !70
  %93 = load ptr, ptr %16, align 8, !tbaa !70
  %94 = icmp eq ptr %93, null
  br i1 %94, label %95, label %96

95:                                               ; preds = %86
  store double -1.000000e+00, ptr %5, align 8
  store i32 1, ptr %17, align 4
  br label %109

96:                                               ; preds = %86
  %97 = load double, ptr %13, align 8, !tbaa !50
  %98 = load ptr, ptr %16, align 8, !tbaa !70
  store double %97, ptr %98, align 8, !tbaa !50
  %99 = load ptr, ptr %8, align 8, !tbaa !38
  %100 = load ptr, ptr %6, align 8, !tbaa !8
  %101 = load ptr, ptr %16, align 8, !tbaa !70
  %102 = call i32 @st__insert(ptr noundef %99, ptr noundef %100, ptr noundef %101)
  %103 = icmp eq i32 %102, -10000
  br i1 %103, label %104, label %107

104:                                              ; preds = %96
  %105 = load ptr, ptr %9, align 8, !tbaa !69
  %106 = call i32 (ptr, ptr, ...) @fprintf(ptr noundef %105, ptr noundef @.str) #5
  br label %107

107:                                              ; preds = %104, %96
  %108 = load double, ptr %13, align 8, !tbaa !50
  store double %108, ptr %5, align 8
  store i32 1, ptr %17, align 4
  br label %109

109:                                              ; preds = %107, %95, %85, %76, %38, %31, %30
  call void @llvm.lifetime.end.p0(i64 8, ptr %16) #5
  call void @llvm.lifetime.end.p0(i64 8, ptr %15) #5
  call void @llvm.lifetime.end.p0(i64 8, ptr %14) #5
  call void @llvm.lifetime.end.p0(i64 8, ptr %13) #5
  call void @llvm.lifetime.end.p0(i64 8, ptr %12) #5
  call void @llvm.lifetime.end.p0(i64 8, ptr %11) #5
  call void @llvm.lifetime.end.p0(i64 8, ptr %10) #5
  %110 = load double, ptr %5, align 8
  ret double %110
}