; Function Attrs: nounwind uwtable
define internal fastcc double @CountMinterms(ptr noundef %0, double noundef %1, ptr noundef nonnull %2, ptr noundef %3) unnamed_addr #0 {
  %5 = alloca ptr, align 8
  call void @llvm.lifetime.start.p0(i64 8, ptr nonnull %5) #8
  %6 = ptrtoint ptr %0 to i64
  %7 = and i64 %6, -2
  %8 = inttoptr i64 %7 to ptr
  %9 = load i32, ptr %8, align 8, !tbaa !51
  %10 = icmp eq i32 %9, 2147483647
  br i1 %10, label %11, label %14

11:                                               ; preds = %4
  %12 = load ptr, ptr @zero, align 8, !tbaa !27
  %13 = icmp eq ptr %0, %12
  %. = select i1 %13, double 0.000000e+00, double %1
  br label %47

14:                                               ; preds = %4
  %15 = call i32 @st__lookup(ptr noundef nonnull %2, ptr noundef %0, ptr noundef nonnull %5) #8
  %.not = icmp eq i32 %15, 0
  br i1 %.not, label %19, label %16

16:                                               ; preds = %14
  %17 = load ptr, ptr %5, align 8, !tbaa !57
  %18 = load double, ptr %17, align 8, !tbaa !59
  br label %47

19:                                               ; preds = %14
  %20 = getelementptr inbounds nuw i8, ptr %8, i64 16
  %21 = load ptr, ptr %20, align 8, !tbaa !52
  %22 = getelementptr inbounds nuw i8, ptr %8, i64 24
  %23 = load ptr, ptr %22, align 8, !tbaa !52
  %24 = ptrtoint ptr %21 to i64
  %25 = and i64 %6, 1
  %26 = xor i64 %25, %24
  %27 = inttoptr i64 %26 to ptr
  %28 = call fastcc double @CountMinterms(ptr noundef %27, double noundef %1, ptr noundef %2, ptr noundef %3)
  %29 = fcmp oeq double %28, -1.000000e+00
  br i1 %29, label %47, label %30

30:                                               ; preds = %19
  %31 = ptrtoint ptr %23 to i64
  %32 = xor i64 %25, %31
  %33 = inttoptr i64 %32 to ptr
  %34 = call fastcc double @CountMinterms(ptr noundef %33, double noundef %1, ptr noundef %2, ptr noundef %3)
  %35 = fcmp oeq double %34, -1.000000e+00
  br i1 %35, label %47, label %36

36:                                               ; preds = %30
  %37 = fmul double %28, 5.000000e-01
  %38 = fmul double %34, 5.000000e-01
  %39 = fadd double %37, %38
  %40 = call noalias dereferenceable_or_null(8) ptr @malloc(i64 noundef 8) #9
  store ptr %40, ptr %5, align 8, !tbaa !57
  %41 = icmp eq ptr %40, null
  br i1 %41, label %47, label %42

42:                                               ; preds = %36
  store double %39, ptr %40, align 8, !tbaa !59
  %43 = call i32 @st__insert(ptr noundef nonnull %2, ptr noundef %0, ptr noundef nonnull %40) #8
  %44 = icmp eq i32 %43, -10000
  br i1 %44, label %45, label %47

45:                                               ; preds = %42
  %46 = call i64 @fwrite(ptr nonnull @.str, i64 23, i64 1, ptr %3)
  br label %47

47:                                               ; preds = %42, %45, %36, %30, %19, %11, %16
  %.0 = phi double [ %18, %16 ], [ %., %11 ], [ -1.000000e+00, %19 ], [ -1.000000e+00, %30 ], [ -1.000000e+00, %36 ], [ %39, %45 ], [ %39, %42 ]
  call void @llvm.lifetime.end.p0(i64 8, ptr nonnull %5) #8
  ret double %.0
}